; Function Attrs: nounwind uwtable
define void @duckdb_je_pa_shard_prefork2(ptr noundef %0, ptr noundef %1) local_unnamed_addr #0 {
  %3 = getelementptr inbounds nuw i8, ptr %1, i64 17
  %4 = load i8, ptr %3, align 1, !tbaa !3, !range !49, !noundef !50
  %5 = trunc nuw i8 %4 to i1
  br i1 %5, label %6, label %8

6:                                                ; preds = %2
  %7 = getelementptr inbounds nuw i8, ptr %1, i64 62264
  tail call void @duckdb_je_sec_prefork2(ptr noundef %0, ptr noundef nonnull %7) #5
  br label %8

8:                                                ; preds = %6, %2
  ret void
}